; Function Attrs: nounwind uwtable
define hidden i32 @exr_attr_opaquedata_copy(ptr noundef %0, ptr noundef %1, ptr noundef readonly %2) local_unnamed_addr #0 {
  %.not = icmp eq ptr %2, null
  br i1 %.not, label %exr_attr_opaquedata_create.exit, label %4

4:                                                ; preds = %3
  %5 = getelementptr inbounds nuw i8, ptr %2, i64 16
  %6 = load ptr, ptr %5, align 8, !tbaa !24
  %.not18 = icmp eq ptr %6, null
  br i1 %.not18, label %37, label %7

7:                                                ; preds = %4
  %8 = load i32, ptr %2, align 8, !tbaa !27
  %9 = sext i32 %8 to i64
  %.not.i.i = icmp eq ptr %0, null
  br i1 %.not.i.i, label %exr_attr_opaquedata_create.exit, label %10

10:                                               ; preds = %7
  %.not23.i.i = icmp eq ptr %1, null
  br i1 %.not23.i.i, label %11, label %15

11:                                               ; preds = %10
  %12 = getelementptr inbounds nuw i8, ptr %0, i64 64
  %13 = load ptr, ptr %12, align 8, !tbaa !3
  %14 = tail call i32 %13(ptr noundef nonnull %0, i32 noundef 3, ptr noundef nonnull @.str) #4
  br label %exr_attr_opaquedata_init.exit.i

15:                                               ; preds = %10
  %16 = icmp slt i32 %8, 0
  br i1 %16, label %17, label %21

17:                                               ; preds = %15
  %18 = getelementptr inbounds nuw i8, ptr %0, i64 72
  %19 = load ptr, ptr %18, align 8, !tbaa !22
  %20 = tail call i32 (ptr, i32, ptr, ...) %19(ptr noundef nonnull %0, i32 noundef 3, ptr noundef nonnull @.str.1, i64 noundef %9) #4
  br label %exr_attr_opaquedata_init.exit.i

21:                                               ; preds = %15
  tail call void @llvm.memset.p0.i64(ptr noundef nonnull align 8 dereferenceable(56) %1, i8 0, i64 56, i1 false)
  %.not24.i.i = icmp eq i32 %8, 0
  br i1 %.not24.i.i, label %exr_attr_opaquedata_init.exit.i.thread, label %22

22:                                               ; preds = %21
  %23 = getelementptr inbounds nuw i8, ptr %0, i64 88
  %24 = load ptr, ptr %23, align 8, !tbaa !23
  %25 = tail call ptr %24(i64 noundef %9) #4
  %26 = getelementptr inbounds nuw i8, ptr %1, i64 16
  store ptr %25, ptr %26, align 8, !tbaa !24
  %.not25.i.i = icmp eq ptr %25, null
  br i1 %.not25.i.i, label %27, label %exr_attr_opaquedata_init.exit.i.thread

27:                                               ; preds = %22
  %28 = getelementptr inbounds nuw i8, ptr %0, i64 56
  %29 = load ptr, ptr %28, align 8, !tbaa !26
  %30 = tail call i32 %29(ptr noundef nonnull %0, i32 noundef 1) #4
  br label %exr_attr_opaquedata_init.exit.i

exr_attr_opaquedata_init.exit.i.thread:           ; preds = %21, %22
  %31 = phi ptr [ null, %21 ], [ %25, %22 ]
  store i32 %8, ptr %1, align 8, !tbaa !27
  %32 = getelementptr inbounds nuw i8, ptr %1, i64 8
  store i32 %8, ptr %32, align 8, !tbaa !28
  br label %34

exr_attr_opaquedata_init.exit.i:                  ; preds = %27, %17, %11
  %.0.i.i = phi i32 [ %20, %17 ], [ %30, %27 ], [ %14, %11 ]
  %33 = icmp eq i32 %.0.i.i, 0
  br i1 %33, label %exr_attr_opaquedata_init.exit.i._crit_edge, label %exr_attr_opaquedata_create.exit

exr_attr_opaquedata_init.exit.i._crit_edge:       ; preds = %exr_attr_opaquedata_init.exit.i
  %.phi.trans.insert = getelementptr inbounds nuw i8, ptr %1, i64 16
  %.pre = load ptr, ptr %.phi.trans.insert, align 8, !tbaa !24
  br label %34

34:                                               ; preds = %exr_attr_opaquedata_init.exit.i._crit_edge, %exr_attr_opaquedata_init.exit.i.thread
  %35 = phi ptr [ %.pre, %exr_attr_opaquedata_init.exit.i._crit_edge ], [ %31, %exr_attr_opaquedata_init.exit.i.thread ]
  %.not.i = icmp eq ptr %35, null
  br i1 %.not.i, label %exr_attr_opaquedata_create.exit, label %36

36:                                               ; preds = %34
  tail call void @llvm.memcpy.p0.p0.i64(ptr nonnull align 1 %35, ptr nonnull readonly align 1 %6, i64 %9, i1 false)
  br label %exr_attr_opaquedata_create.exit

37:                                               ; preds = %4
  %.not.i19 = icmp eq ptr %0, null
  br i1 %.not.i19, label %exr_attr_opaquedata_create.exit, label %38

38:                                               ; preds = %37
  %.not23.i = icmp eq ptr %1, null
  br i1 %.not23.i, label %exr_attr_opaquedata_init.exit, label %47

exr_attr_opaquedata_init.exit:                    ; preds = %38
  %39 = getelementptr inbounds nuw i8, ptr %0, i64 64
  %40 = load ptr, ptr %39, align 8, !tbaa !3
  %41 = tail call i32 %40(ptr noundef nonnull %0, i32 noundef 3, ptr noundef nonnull @.str) #4
  %42 = icmp eq i32 %41, 0
  br i1 %42, label %43, label %exr_attr_opaquedata_create.exit

43:                                               ; preds = %exr_attr_opaquedata_init.exit
  %44 = getelementptr inbounds nuw i8, ptr %0, i64 56
  %45 = load ptr, ptr %44, align 8, !tbaa !26
  %46 = tail call i32 %45(ptr noundef nonnull %0, i32 noundef 3) #4
  br label %exr_attr_opaquedata_create.exit

47:                                               ; preds = %38
  tail call void @llvm.memset.p0.i64(ptr noundef nonnull align 8 dereferenceable(56) %1, i8 0, i64 56, i1 false)
  %48 = getelementptr inbounds nuw i8, ptr %2, i64 4
  %49 = load i32, ptr %48, align 4, !tbaa !32
  %50 = icmp slt i32 %49, 0
  br i1 %50, label %51, label %55

51:                                               ; preds = %47
  %52 = getelementptr inbounds nuw i8, ptr %0, i64 72
  %53 = load ptr, ptr %52, align 8, !tbaa !22
  %54 = tail call i32 (ptr, i32, ptr, ...) %53(ptr noundef nonnull %0, i32 noundef 3, ptr noundef nonnull @.str.6, i32 noundef %49) #4
  br label %exr_attr_opaquedata_create.exit

55:                                               ; preds = %47
  %56 = getelementptr inbounds nuw i8, ptr %2, i64 24
  %57 = load ptr, ptr %56, align 8, !tbaa !30
  %58 = getelementptr inbounds nuw i8, ptr %1, i64 24
  store ptr %57, ptr %58, align 8, !tbaa !30
  %59 = getelementptr inbounds nuw i8, ptr %1, i64 4
  store i32 %49, ptr %59, align 4, !tbaa !32
  br label %exr_attr_opaquedata_create.exit

exr_attr_opaquedata_create.exit:                  ; preds = %55, %37, %51, %43, %36, %34, %exr_attr_opaquedata_init.exit.i, %7, %exr_attr_opaquedata_init.exit, %3
  %.014 = phi i32 [ 3, %3 ], [ %41, %exr_attr_opaquedata_init.exit ], [ 0, %34 ], [ 0, %36 ], [ %.0.i.i, %exr_attr_opaquedata_init.exit.i ], [ 2, %7 ], [ %54, %51 ], [ %46, %43 ], [ 0, %55 ], [ 2, %37 ]
  ret i32 %.014
}